; Function Attrs: mustprogress uwtable
define void @_ZN18duckdb_fastpforlib8internal14__fastunpack29EPKjPm(ptr noalias noundef %0, ptr noalias noundef initializes((0, 32)) %1) local_unnamed_addr #5 {
  %3 = alloca ptr, align 8
  tail call void @llvm.experimental.noalias.scope.decl(metadata !7520)
  tail call void @llvm.experimental.noalias.scope.decl(metadata !7523)
  tail call void @llvm.experimental.noalias.scope.decl(metadata !7526)
  %4 = load i32, ptr %0, align 4, !tbaa !7, !alias.scope !7523, !noalias !7528
  %5 = and i32 %4, 536870911
  %6 = zext nneg i32 %5 to i64
  store i64 %6, ptr %1, align 8, !tbaa !9, !alias.scope !7528, !noalias !7523
  tail call void @llvm.experimental.noalias.scope.decl(metadata !7529)
  %7 = getelementptr inbounds nuw i8, ptr %1, i64 8
  tail call void @llvm.experimental.noalias.scope.decl(metadata !7532)
  %8 = lshr i32 %4, 29
  %9 = getelementptr inbounds nuw i8, ptr %0, i64 4
  %10 = load i32, ptr %9, align 4, !tbaa !7, !noalias !7535
  %11 = shl i32 %10, 3
  %12 = and i32 %11, 536870904
  %13 = or disjoint i32 %12, %8
  %14 = zext nneg i32 %13 to i64
  store i64 %14, ptr %7, align 8, !tbaa !9, !alias.scope !7535
  tail call void @llvm.experimental.noalias.scope.decl(metadata !7536)
  %15 = getelementptr inbounds nuw i8, ptr %1, i64 16
  tail call void @llvm.experimental.noalias.scope.decl(metadata !7539)
  %16 = lshr i32 %10, 26
  %17 = getelementptr inbounds nuw i8, ptr %0, i64 8
  %18 = load i32, ptr %17, align 4, !tbaa !7, !noalias !7542
  %19 = shl i32 %18, 6
  %20 = and i32 %19, 536870848
  %21 = or disjoint i32 %20, %16
  %22 = zext nneg i32 %21 to i64
  store i64 %22, ptr %15, align 8, !tbaa !9, !alias.scope !7542
  tail call void @llvm.experimental.noalias.scope.decl(metadata !7543)
  %23 = getelementptr inbounds nuw i8, ptr %1, i64 24
  tail call void @llvm.experimental.noalias.scope.decl(metadata !7546)
  %24 = lshr i32 %18, 23
  %25 = getelementptr inbounds nuw i8, ptr %0, i64 12
  store ptr %25, ptr %3, align 8, !tbaa !1879, !noalias !7549
  %26 = load i32, ptr %25, align 4, !tbaa !7, !noalias !7549
  %27 = shl i32 %26, 9
  %28 = and i32 %27, 536870400
  %29 = or disjoint i32 %28, %24
  %30 = zext nneg i32 %29 to i64
  store i64 %30, ptr %23, align 8, !tbaa !9, !alias.scope !7549
  call void @_ZN18duckdb_fastpforlib8internal8UnrollerILt29ELt4EE6UnpackERrPKjPm(ptr noundef nonnull align 8 dereferenceable(8) %3, ptr noundef nonnull %1)
  ret void
}